target datalayout = "e-m:e-p270:32:32-p271:32:32-p272:64:64-i64:64-i128:128-f80:128-n8:16:32:64-S128"
target triple = "x86_64-pc-linux-gnu"

%struct.Expr = type { i32 }
%struct.Var = type { %struct.Expr, i32, i16, i32, i32, i32, ptr, i32, i32, i32, i16, i32 }
%struct.indexed_tlist = type { ptr, i32, i8, i8, [0 x %struct.tlist_vinfo] }
%struct.tlist_vinfo = type { i32, i16, i16, ptr }

@.str.1 = private unnamed_addr constant [10 x i8] c"setrefs.c\00", align 1
@.str.4 = private unnamed_addr constant [52 x i8] c"wrong varnullingrels %s (expected %s) for Var %d/%d\00", align 1
@__func__.search_indexed_tlist_for_var = private unnamed_addr constant [29 x i8] c"search_indexed_tlist_for_var\00", align 1

; Function Attrs: inlinehint nounwind uwtable
define internal ptr @copyVar(ptr noundef %0) #2 {
  %2 = alloca ptr, align 8
  %3 = alloca ptr, align 8
  store ptr %0, ptr %2, align 8
  call void @llvm.lifetime.start.p0(i64 8, ptr %3) #8
  %4 = call ptr @palloc(i64 noundef 56)
  store ptr %4, ptr %3, align 8
  %5 = load ptr, ptr %3, align 8
  %6 = load ptr, ptr %2, align 8
  call void @llvm.memcpy.p0.p0.i64(ptr align 8 %5, ptr align 8 %6, i64 56, i1 false)
  %7 = load ptr, ptr %3, align 8
  call void @llvm.lifetime.end.p0(i64 8, ptr %3) #8
  ret ptr %7
}

; Function Attrs: nounwind uwtable
define internal ptr @search_indexed_tlist_for_var(ptr noundef %0, ptr noundef %1, i32 noundef %2, i32 noundef %3, i32 noundef %4) #0 {
  %6 = alloca ptr, align 8
  %7 = alloca ptr, align 8
  %8 = alloca ptr, align 8
  %9 = alloca i32, align 4
  %10 = alloca i32, align 4
  %11 = alloca i32, align 4
  %12 = alloca i32, align 4
  %13 = alloca i16, align 2
  %14 = alloca ptr, align 8
  %15 = alloca i32, align 4
  %16 = alloca ptr, align 8
  %17 = alloca i32, align 4
  store ptr %0, ptr %7, align 8
  store ptr %1, ptr %8, align 8
  store i32 %2, ptr %9, align 4
  store i32 %3, ptr %10, align 4
  store i32 %4, ptr %11, align 4
  call void @llvm.lifetime.start.p0(i64 4, ptr %12) #8
  %18 = load ptr, ptr %7, align 8
  %19 = getelementptr inbounds nuw %struct.Var, ptr %18, i32 0, i32 1
  %20 = load i32, ptr %19, align 4
  store i32 %20, ptr %12, align 4
  call void @llvm.lifetime.start.p0(i64 2, ptr %13) #8
  %21 = load ptr, ptr %7, align 8
  %22 = getelementptr inbounds nuw %struct.Var, ptr %21, i32 0, i32 2
  %23 = load i16, ptr %22, align 8
  store i16 %23, ptr %13, align 2
  call void @llvm.lifetime.start.p0(i64 8, ptr %14) #8
  call void @llvm.lifetime.start.p0(i64 4, ptr %15) #8
  %24 = load ptr, ptr %8, align 8
  %25 = getelementptr inbounds nuw %struct.indexed_tlist, ptr %24, i32 0, i32 4
  %26 = getelementptr inbounds [0 x %struct.tlist_vinfo], ptr %25, i64 0, i64 0
  store ptr %26, ptr %14, align 8
  %27 = load ptr, ptr %8, align 8
  %28 = getelementptr inbounds nuw %struct.indexed_tlist, ptr %27, i32 0, i32 1
  %29 = load i32, ptr %28, align 8
  store i32 %29, ptr %15, align 4
  br label %30

30:                                               ; preds = %127, %5
  %31 = load i32, ptr %15, align 4
  %32 = add i32 %31, -1
  store i32 %32, ptr %15, align 4
  %33 = icmp sgt i32 %31, 0
  br i1 %33, label %34, label %130

34:                                               ; preds = %30
  %35 = load ptr, ptr %14, align 8
  %36 = getelementptr inbounds nuw %struct.tlist_vinfo, ptr %35, i32 0, i32 0
  %37 = load i32, ptr %36, align 8
  %38 = load i32, ptr %12, align 4
  %39 = icmp eq i32 %37, %38
  br i1 %39, label %40, label %127

40:                                               ; preds = %34
  %41 = load ptr, ptr %14, align 8
  %42 = getelementptr inbounds nuw %struct.tlist_vinfo, ptr %41, i32 0, i32 1
  %43 = load i16, ptr %42, align 4
  %44 = sext i16 %43 to i32
  %45 = load i16, ptr %13, align 2
  %46 = sext i16 %45 to i32
  %47 = icmp eq i32 %44, %46
  br i1 %47, label %48, label %127

48:                                               ; preds = %40
  call void @llvm.lifetime.start.p0(i64 8, ptr %16) #8
  %49 = load ptr, ptr %7, align 8
  %50 = call ptr @copyVar(ptr noundef %49)
  store ptr %50, ptr %16, align 8
  %51 = load i16, ptr %13, align 2
  %52 = sext i16 %51 to i32
  %53 = icmp sle i32 %52, 0
  br i1 %53, label %106, label %54

54:                                               ; preds = %48
  %55 = load i32, ptr %11, align 4
  %56 = icmp eq i32 %55, 1
  br i1 %56, label %57, label %65

57:                                               ; preds = %54
  %58 = load ptr, ptr %7, align 8
  %59 = getelementptr inbounds nuw %struct.Var, ptr %58, i32 0, i32 6
  %60 = load ptr, ptr %59, align 8
  %61 = load ptr, ptr %14, align 8
  %62 = getelementptr inbounds nuw %struct.tlist_vinfo, ptr %61, i32 0, i32 3
  %63 = load ptr, ptr %62, align 8
  %64 = call zeroext i1 @bms_is_subset(ptr noundef %60, ptr noundef %63)
  br i1 %64, label %106, label %84

65:                                               ; preds = %54
  %66 = load i32, ptr %11, align 4
  %67 = icmp eq i32 %66, 2
  br i1 %67, label %68, label %76

68:                                               ; preds = %65
  %69 = load ptr, ptr %14, align 8
  %70 = getelementptr inbounds nuw %struct.tlist_vinfo, ptr %69, i32 0, i32 3
  %71 = load ptr, ptr %70, align 8
  %72 = load ptr, ptr %7, align 8
  %73 = getelementptr inbounds nuw %struct.Var, ptr %72, i32 0, i32 6
  %74 = load ptr, ptr %73, align 8
  %75 = call zeroext i1 @bms_is_subset(ptr noundef %71, ptr noundef %74)
  br i1 %75, label %106, label %84

76:                                               ; preds = %65
  %77 = load ptr, ptr %14, align 8
  %78 = getelementptr inbounds nuw %struct.tlist_vinfo, ptr %77, i32 0, i32 3
  %79 = load ptr, ptr %78, align 8
  %80 = load ptr, ptr %7, align 8
  %81 = getelementptr inbounds nuw %struct.Var, ptr %80, i32 0, i32 6
  %82 = load ptr, ptr %81, align 8
  %83 = call zeroext i1 @bms_equal(ptr noundef %79, ptr noundef %82)
  br i1 %83, label %106, label %84

84:                                               ; preds = %76, %68, %57
  br label %85

85:                                               ; preds = %84
  br i1 true, label %86, label %88

86:                                               ; preds = %85
  %87 = call zeroext i1 @errstart_cold(i32 noundef 21, ptr noundef null) #9
  br i1 %87, label %90, label %103

88:                                               ; preds = %85
  %89 = call zeroext i1 @errstart(i32 noundef 21, ptr noundef null)
  br i1 %89, label %90, label %103

90:                                               ; preds = %88, %86
  %91 = load ptr, ptr %7, align 8
  %92 = getelementptr inbounds nuw %struct.Var, ptr %91, i32 0, i32 6
  %93 = load ptr, ptr %92, align 8
  %94 = call ptr @bmsToString(ptr noundef %93)
  %95 = load ptr, ptr %14, align 8
  %96 = getelementptr inbounds nuw %struct.tlist_vinfo, ptr %95, i32 0, i32 3
  %97 = load ptr, ptr %96, align 8
  %98 = call ptr @bmsToString(ptr noundef %97)
  %99 = load i32, ptr %12, align 4
  %100 = load i16, ptr %13, align 2
  %101 = sext i16 %100 to i32
  %102 = call i32 (ptr, ...) @errmsg_internal(ptr noundef @.str.4, ptr noundef %94, ptr noundef %98, i32 noundef %99, i32 noundef %101)
  call void @errfinish(ptr noundef @.str.1, i32 noundef 2904, ptr noundef @__func__.search_indexed_tlist_for_var)
  br label %103

103:                                              ; preds = %90, %88, %86
  unreachable

104:                                              ; No predecessors!
  br label %105

105:                                              ; preds = %104
  br label %106

106:                                              ; preds = %105, %76, %68, %57, %48
  %107 = load i32, ptr %9, align 4
  %108 = load ptr, ptr %16, align 8
  %109 = getelementptr inbounds nuw %struct.Var, ptr %108, i32 0, i32 1
  store i32 %107, ptr %109, align 4
  %110 = load ptr, ptr %14, align 8
  %111 = getelementptr inbounds nuw %struct.tlist_vinfo, ptr %110, i32 0, i32 2
  %112 = load i16, ptr %111, align 2
  %113 = load ptr, ptr %16, align 8
  %114 = getelementptr inbounds nuw %struct.Var, ptr %113, i32 0, i32 2
  store i16 %112, ptr %114, align 8
  %115 = load ptr, ptr %16, align 8
  %116 = getelementptr inbounds nuw %struct.Var, ptr %115, i32 0, i32 9
  %117 = load i32, ptr %116, align 8
  %118 = icmp ugt i32 %117, 0
  br i1 %118, label %119, label %125

119:                                              ; preds = %106
  %120 = load i32, ptr %10, align 4
  %121 = load ptr, ptr %16, align 8
  %122 = getelementptr inbounds nuw %struct.Var, ptr %121, i32 0, i32 9
  %123 = load i32, ptr %122, align 8
  %124 = add i32 %123, %120
  store i32 %124, ptr %122, align 8
  br label %125

125:                                              ; preds = %119, %106
  %126 = load ptr, ptr %16, align 8
  store ptr %126, ptr %6, align 8
  store i32 1, ptr %17, align 4
  call void @llvm.lifetime.end.p0(i64 8, ptr %16) #8
  br label %131

127:                                              ; preds = %40, %34
  %128 = load ptr, ptr %14, align 8
  %129 = getelementptr inbounds nuw %struct.tlist_vinfo, ptr %128, i32 1
  store ptr %129, ptr %14, align 8
  br label %30, !llvm.loop !39

130:                                              ; preds = %30
  store ptr null, ptr %6, align 8
  store i32 1, ptr %17, align 4
  br label %131

131:                                              ; preds = %130, %125
  call void @llvm.lifetime.end.p0(i64 4, ptr %15) #8
  call void @llvm.lifetime.end.p0(i64 8, ptr %14) #8
  call void @llvm.lifetime.end.p0(i64 2, ptr %13) #8
  call void @llvm.lifetime.end.p0(i64 4, ptr %12) #8
  %132 = load ptr, ptr %6, align 8
  ret ptr %132
}