; Function Attrs: nounwind uwtable
define internal fastcc noundef ptr @search_indexed_tlist_for_var(ptr noundef nonnull readonly captures(none) %0, ptr noundef readonly captures(none) %1, i32 noundef %2, i32 noundef %3, i32 noundef %4) unnamed_addr #0 {
  %6 = getelementptr inbounds nuw i8, ptr %0, i64 4
  %7 = load i32, ptr %6, align 4
  %8 = getelementptr inbounds nuw i8, ptr %0, i64 8
  %9 = load i16, ptr %8, align 8
  %10 = getelementptr inbounds nuw i8, ptr %1, i64 8
  %11 = load i32, ptr %10, align 8
  %12 = icmp sgt i32 %11, 0
  br i1 %12, label %.lr.ph, label %.loopexit

.lr.ph:                                           ; preds = %5, %61
  %.in = phi i32 [ %13, %61 ], [ %11, %5 ]
  %.pn40 = phi ptr [ %.03341, %61 ], [ %1, %5 ]
  %.03341 = getelementptr inbounds nuw i8, ptr %.pn40, i64 16
  %13 = add nsw i32 %.in, -1
  %14 = load i32, ptr %.03341, align 8
  %15 = icmp eq i32 %14, %7
  br i1 %15, label %16, label %61

16:                                               ; preds = %.lr.ph
  %17 = getelementptr inbounds nuw i8, ptr %.pn40, i64 20
  %18 = load i16, ptr %17, align 4
  %19 = icmp eq i16 %18, %9
  br i1 %19, label %20, label %61

20:                                               ; preds = %16
  %21 = tail call noundef ptr @palloc(i64 noundef 56) #8
  tail call void @llvm.memcpy.p0.p0.i64(ptr noundef nonnull align 8 dereferenceable(56) %21, ptr noundef nonnull readonly align 8 dereferenceable(56) %0, i64 56, i1 false)
  %22 = icmp slt i16 %9, 1
  br i1 %22, label %52, label %23

23:                                               ; preds = %20
  switch i32 %4, label %36 [
    i32 1, label %24
    i32 2, label %30
  ]

24:                                               ; preds = %23
  %25 = getelementptr inbounds nuw i8, ptr %0, i64 24
  %26 = load ptr, ptr %25, align 8
  %27 = getelementptr inbounds nuw i8, ptr %.pn40, i64 24
  %28 = load ptr, ptr %27, align 8
  %29 = tail call zeroext i1 @bms_is_subset(ptr noundef %26, ptr noundef %28) #8
  br i1 %29, label %52, label %42

30:                                               ; preds = %23
  %31 = getelementptr inbounds nuw i8, ptr %.pn40, i64 24
  %32 = load ptr, ptr %31, align 8
  %33 = getelementptr inbounds nuw i8, ptr %0, i64 24
  %34 = load ptr, ptr %33, align 8
  %35 = tail call zeroext i1 @bms_is_subset(ptr noundef %32, ptr noundef %34) #8
  br i1 %35, label %52, label %42

36:                                               ; preds = %23
  %37 = getelementptr inbounds nuw i8, ptr %.pn40, i64 24
  %38 = load ptr, ptr %37, align 8
  %39 = getelementptr inbounds nuw i8, ptr %0, i64 24
  %40 = load ptr, ptr %39, align 8
  %41 = tail call zeroext i1 @bms_equal(ptr noundef %38, ptr noundef %40) #8
  br i1 %41, label %52, label %42

42:                                               ; preds = %36, %30, %24
  %43 = zext nneg i16 %9 to i32
  %44 = tail call zeroext i1 @errstart_cold(i32 noundef 21, ptr noundef null) #9
  tail call void @llvm.assume(i1 %44)
  %45 = getelementptr inbounds nuw i8, ptr %0, i64 24
  %46 = load ptr, ptr %45, align 8
  %47 = tail call ptr @bmsToString(ptr noundef %46) #8
  %48 = getelementptr inbounds nuw i8, ptr %.pn40, i64 24
  %49 = load ptr, ptr %48, align 8
  %50 = tail call ptr @bmsToString(ptr noundef %49) #8
  %51 = tail call i32 (ptr, ...) @errmsg_internal(ptr noundef nonnull @.str.4, ptr noundef %47, ptr noundef %50, i32 noundef %7, i32 noundef %43) #8
  tail call void @errfinish(ptr noundef nonnull @.str.1, i32 noundef 2904, ptr noundef nonnull @__func__.search_indexed_tlist_for_var) #8
  unreachable

52:                                               ; preds = %36, %30, %24, %20
  %53 = getelementptr inbounds nuw i8, ptr %21, i64 4
  store i32 %2, ptr %53, align 4
  %54 = getelementptr inbounds nuw i8, ptr %.pn40, i64 22
  %55 = load i16, ptr %54, align 2
  %56 = getelementptr inbounds nuw i8, ptr %21, i64 8
  store i16 %55, ptr %56, align 8
  %57 = getelementptr inbounds nuw i8, ptr %21, i64 40
  %58 = load i32, ptr %57, align 8
  %.not = icmp eq i32 %58, 0
  br i1 %.not, label %.loopexit, label %59

59:                                               ; preds = %52
  %60 = add i32 %58, %3
  store i32 %60, ptr %57, align 8
  br label %.loopexit

61:                                               ; preds = %16, %.lr.ph
  %62 = icmp samesign ugt i32 %.in, 1
  br i1 %62, label %.lr.ph, label %.loopexit, !llvm.loop !13

.loopexit:                                        ; preds = %61, %5, %52, %59
  %.0 = phi ptr [ %21, %59 ], [ %21, %52 ], [ null, %5 ], [ null, %61 ]
  ret ptr %.0
}